CCS PCM C Compiler, Version 4.032, 62930               24-set-09 22:41

               Filename: D:\Micro II\Projeto RS-232\main.lst

               ROM used: 154 words (2%)
                         Largest free fragment is 2048
               RAM used: 7 (2%) at main() level
                         11 (3%) worst case
               Stack:    2 locations

*
0000:  MOVLW  00
0001:  MOVWF  0A
0002:  GOTO   048
0003:  NOP
.................... #include "D:\Micro II\Projeto RS-232\main.h" 
.................... #include <16F876A.h> 
.................... //////// Standard Header file for the PIC16F876A device //////////////// 
.................... #device PIC16F876A 
.................... #list 
....................  
.................... #device adc=8 
....................  
.................... #FUSES NOWDT                    //No Watch Dog Timer 
.................... #FUSES LP                       //Low power osc < 200 khz 
.................... #FUSES NOPUT                    //No Power Up Timer 
.................... #FUSES NOPROTECT                //Code not protected from reading 
.................... #FUSES NODEBUG                  //No Debug mode for ICD 
.................... #FUSES NOBROWNOUT               //No brownout reset 
.................... #FUSES NOLVP                    //No low voltage prgming, B3(PIC16) or B5(PIC18) used for I/O 
.................... #FUSES NOCPD                    //No EE protection 
.................... #FUSES WRT_50%                  //Lower half of Program Memory is Write Protected 
....................  
.................... #use delay(clock=20000000) 
0004:  MOVLW  23
0005:  MOVWF  04
0006:  BCF    03.7
0007:  MOVF   00,W
0008:  BTFSC  03.2
0009:  GOTO   017
000A:  MOVLW  06
000B:  MOVWF  78
000C:  CLRF   77
000D:  DECFSZ 77,F
000E:  GOTO   00D
000F:  DECFSZ 78,F
0010:  GOTO   00C
0011:  MOVLW  7B
0012:  MOVWF  77
0013:  DECFSZ 77,F
0014:  GOTO   013
0015:  DECFSZ 00,F
0016:  GOTO   00A
0017:  BCF    0A.3
0018:  BCF    0A.4
0019:  GOTO   041 (RETURN)
.................... #use rs232(baud=9600,parity=N,xmit=PIN_C6,rcv=PIN_C7,bits=8) 
....................  
.................... #byte TXREG = 0x19 
.................... #byte RCREG = 0x1A 
....................  
.................... #byte PORT_C = 0x07 
....................  
....................  
.................... #bit C7 = PORT_C.7 
.................... #bit C6 = PORT_C.6 
....................  
....................  
....................  void envia_byte(){ 
....................   
....................    //PORT_C.7 = TXREG; 
....................    //RCREG = PORT_C.6; 
....................    int i = 0; 
001A:  CLRF   21
....................     
....................    for(i=0;i<8;i++) 
001B:  CLRF   21
001C:  MOVF   21,W
001D:  SUBLW  07
001E:  BTFSS  03.0
001F:  GOTO   045
....................    { 
....................       C6 = 0; 
0020:  BCF    07.6
....................       RCREG = C6; 
0021:  CLRF   1A
0022:  BTFSC  07.6
0023:  INCF   1A,F
....................       printf((*C6)); 
0024:  MOVLW  00
0025:  BTFSC  07.6
0026:  MOVLW  01
0027:  CLRF   7A
0028:  MOVWF  04
0029:  BCF    03.7
002A:  BTFSC  7A.0
002B:  BSF    03.7
002C:  MOVF   00,W
002D:  MOVWF  22
002E:  MOVWF  04
002F:  BCF    03.7
0030:  BTFSC  23.0
0031:  BSF    03.7
0032:  MOVLW  00
0033:  IORWF  00,W
0034:  BTFSC  03.2
0035:  GOTO   03C
0036:  BTFSS  0C.4
0037:  GOTO   036
0038:  MOVF   00,W
0039:  MOVWF  19
003A:  INCF   04,F
003B:  GOTO   032
....................       delay_ms(10000); 
003C:  MOVLW  28
003D:  MOVWF  22
003E:  MOVLW  FA
003F:  MOVWF  23
0040:  GOTO   004
0041:  DECFSZ 22,F
0042:  GOTO   03E
....................    } 
0043:  INCF   21,F
0044:  GOTO   01C
....................     
....................     
....................     
....................  } 
0045:  BCF    0A.3
0046:  BCF    0A.4
0047:  GOTO   098 (RETURN)
....................  
.................... void main() 
.................... { 
0048:  CLRF   04
0049:  BCF    03.7
004A:  MOVLW  1F
004B:  ANDWF  03,F
004C:  MOVLW  81
004D:  BSF    03.5
004E:  MOVWF  19
004F:  MOVLW  A6
0050:  MOVWF  18
0051:  MOVLW  90
0052:  BCF    03.5
0053:  MOVWF  18
0054:  BSF    03.5
0055:  BSF    1F.0
0056:  BSF    1F.1
0057:  BSF    1F.2
0058:  BCF    1F.3
0059:  MOVLW  07
005A:  MOVWF  1C
....................  
....................    setup_adc_ports(NO_ANALOGS); 
*
005E:  BSF    03.5
005F:  BSF    1F.0
0060:  BSF    1F.1
0061:  BSF    1F.2
0062:  BCF    1F.3
....................    setup_adc(ADC_OFF); 
0063:  BCF    03.5
0064:  BCF    1F.0
....................    setup_spi(SPI_SS_DISABLED); 
*
005B:  MOVLW  FF
005C:  BCF    03.5
005D:  MOVWF  20
*
0065:  BCF    14.5
0066:  BCF    20.5
0067:  MOVF   20,W
0068:  BSF    03.5
0069:  MOVWF  07
006A:  BCF    03.5
006B:  BSF    20.4
006C:  MOVF   20,W
006D:  BSF    03.5
006E:  MOVWF  07
006F:  BCF    03.5
0070:  BCF    20.3
0071:  MOVF   20,W
0072:  BSF    03.5
0073:  MOVWF  07
0074:  MOVLW  01
0075:  BCF    03.5
0076:  MOVWF  14
0077:  MOVLW  00
0078:  BSF    03.5
0079:  MOVWF  14
....................    setup_timer_0(RTCC_INTERNAL|RTCC_DIV_1); 
007A:  MOVF   01,W
007B:  ANDLW  C7
007C:  IORLW  08
007D:  MOVWF  01
....................    setup_timer_1(T1_DISABLED); 
007E:  BCF    03.5
007F:  CLRF   10
....................    setup_timer_2(T2_DISABLED,0,1); 
0080:  MOVLW  00
0081:  MOVWF  78
0082:  MOVWF  12
0083:  MOVLW  00
0084:  BSF    03.5
0085:  MOVWF  12
....................    setup_comparator(NC_NC_NC_NC); 
0086:  MOVLW  07
0087:  MOVWF  1C
0088:  MOVF   05,W
0089:  MOVLW  10
008A:  MOVWF  77
008B:  DECFSZ 77,F
008C:  GOTO   08B
008D:  NOP
008E:  MOVF   1C,W
008F:  BCF    03.5
0090:  BCF    0D.6
....................    setup_vref(FALSE); 
0091:  BSF    03.5
0092:  CLRF   1D
....................  
....................  // TODO: USER CODE!! 
....................  set_tris_c(0xBF); 
0093:  MOVLW  BF
0094:  MOVWF  07
0095:  BCF    03.5
0096:  MOVWF  20
....................   
....................  
....................   
....................  while(true){ 
....................    //printf("Micro2\R\N"); 
....................    //putc(getc()); 
....................    envia_byte(); 
0097:  GOTO   01A
....................     
....................   
....................  } 
0098:  GOTO   097
....................  
.................... } 
0099:  SLEEP

Configuration Fuses:
   Word  1: 3938   LP NOWDT NOPUT NODEBUG NOPROTECT NOBROWNOUT NOLVP NOCPD WRT_50%
